target datalayout = "e-m:e-p270:32:32-p271:32:32-p272:64:64-i64:64-i128:128-f80:128-n8:16:32:64-S128"
target triple = "x86_64-pc-linux-gnu"

@UseLargePages = external global i8, align 1
@MaxHeapSize = external global i64, align 8
@SpaceAlignment = external global i64, align 8
@HeapAlignment = external global i64, align 8
@_ZN20ShenandoahHeapRegion15RegionSizeBytesE = external global i64, align 8

; Function Attrs: mustprogress nounwind uwtable
define linkonce_odr hidden noundef i64 @_Z4MAX2ImET_S0_S0_(i64 noundef %0, i64 noundef %1) #1 comdat {
  %3 = alloca i64, align 8
  %4 = alloca i64, align 8
  store i64 %0, ptr %3, align 8
  store i64 %1, ptr %4, align 8
  %5 = load i64, ptr %3, align 8
  %6 = load i64, ptr %4, align 8
  %7 = icmp ugt i64 %5, %6
  br i1 %7, label %8, label %10

8:                                                ; preds = %2
  %9 = load i64, ptr %3, align 8
  br label %12

10:                                               ; preds = %2
  %11 = load i64, ptr %4, align 8
  br label %12

12:                                               ; preds = %10, %8
  %13 = phi i64 [ %9, %8 ], [ %11, %10 ]
  ret i64 %13
}

; Function Attrs: mustprogress nounwind uwtable
define linkonce_odr hidden noundef i64 @_ZN20ShenandoahHeapRegion17region_size_bytesEv() #1 comdat align 2 {
  %1 = load i64, ptr @_ZN20ShenandoahHeapRegion15RegionSizeBytesE, align 8
  ret i64 %1
}

; Function Attrs: mustprogress nounwind uwtable
define hidden void @_ZN19ShenandoahArguments21initialize_alignmentsEv(ptr noundef nonnull align 8 dereferenceable(8) %0) unnamed_addr #1 align 2 {
  %2 = alloca ptr, align 8
  %3 = alloca i64, align 8
  store ptr %0, ptr %2, align 8
  %4 = load i64, ptr @MaxHeapSize, align 8
  %5 = call noundef i64 @_ZN20ShenandoahHeapRegion11setup_sizesEm(i64 noundef %4)
  store i64 %5, ptr @MaxHeapSize, align 8
  %6 = call noundef i64 @_ZN20ShenandoahHeapRegion17region_size_bytesEv()
  store i64 %6, ptr %3, align 8
  %7 = load i8, ptr @UseLargePages, align 1
  %8 = trunc i8 %7 to i1
  br i1 %8, label %9, label %13

9:                                                ; preds = %1
  %10 = load i64, ptr %3, align 8
  %11 = call noundef i64 @_ZN2os15large_page_sizeEv()
  %12 = call noundef i64 @_Z4MAX2ImET_S0_S0_(i64 noundef %10, i64 noundef %11)
  store i64 %12, ptr %3, align 8
  br label %13

13:                                               ; preds = %9, %1
  %14 = load i64, ptr %3, align 8
  store i64 %14, ptr @SpaceAlignment, align 8
  %15 = load i64, ptr %3, align 8
  store i64 %15, ptr @HeapAlignment, align 8
  ret void
}