; Function Attrs: mustprogress nounwind uwtable
define hidden void @_ZN19ShenandoahArguments21initialize_alignmentsEv(ptr nocapture nonnull readnone align 8 %0) unnamed_addr #0 align 2 {
  %2 = load i64, ptr @MaxHeapSize, align 8
  %3 = tail call noundef i64 @_ZN20ShenandoahHeapRegion11setup_sizesEm(i64 noundef %2) #5
  store i64 %3, ptr @MaxHeapSize, align 8
  %4 = load i64, ptr @_ZN20ShenandoahHeapRegion15RegionSizeBytesE, align 8
  %5 = load i8, ptr @UseLargePages, align 1
  %6 = trunc i8 %5 to i1
  br i1 %6, label %7, label %10

7:                                                ; preds = %1
  %8 = tail call noundef i64 @_ZN2os15large_page_sizeEv() #5
  %9 = tail call noundef i64 @llvm.umax.i64(i64 %4, i64 %8)
  br label %10

10:                                               ; preds = %7, %1
  %.0 = phi i64 [ %9, %7 ], [ %4, %1 ]
  store i64 %.0, ptr @SpaceAlignment, align 8
  store i64 %.0, ptr @HeapAlignment, align 8
  ret void
}